target datalayout = "e-m:e-p270:32:32-p271:32:32-p272:64:64-i64:64-i128:128-f80:128-n8:16:32:64-S128"
target triple = "x86_64-pc-linux-gnu"

%struct.AVChannelLayout = type { i32, i32, %union.anon, ptr }
%union.anon = type { i64 }
%struct.AVCodecContext = type { ptr, i32, i32, ptr, i32, i32, ptr, ptr, ptr, i64, i32, i32, ptr, i32, %struct.AVRational, %struct.AVRational, %struct.AVRational, i32, i32, i32, i32, i32, %struct.AVRational, i32, i32, i32, i32, i32, i32, i32, i32, i32, i32, i32, ptr, ptr, i32, float, float, float, float, float, float, float, float, float, i32, i32, i32, i32, i32, i32, i32, i32, i32, i32, i32, i32, ptr, ptr, ptr, i32, i32, i32, i32, i32, i32, i32, i32, i32, i32, %struct.AVChannelLayout, i32, i32, i32, i32, i32, i32, i32, i32, ptr, i32, i32, i32, float, float, i32, i32, i32, i32, i32, ptr, i64, i64, float, float, i32, i32, ptr, ptr, i32, i32, i32, i32, i32, ptr, ptr, ptr, ptr, i32, i32, [8 x i64], i32, i32, i32, i32, i32, i32, i32, ptr, ptr, i32, i32, i32, i32, i32, i32, i32, i32, i32, i32, ptr, ptr, i32, i32, ptr, ptr, ptr, ptr, i32, i32, i64, i32, i32, i64, ptr, i64, ptr, i32, ptr, i32 }
%struct.AVRational = type { i32, i32 }
%struct.G723_1_Context = type { ptr, i32, [2 x %struct.G723_1_ChannelContext] }
%struct.G723_1_ChannelContext = type { [4 x %struct.G723_1_Subframe], i32, i32, i32, [3 x i8], [2 x i32], i32, [10 x i16], [10 x i16], [145 x i16], [389 x i16], [10 x i16], [10 x i16], [10 x i32], i32, i32, i32, i32, i32, i32, i32, i32, [399 x i16], [120 x i16], [145 x i16], i16, i32, [10 x i16], [10 x i16], [145 x i16] }
%struct.G723_1_Subframe = type { i32, i32, i32, i32, i32, i32, i32 }

@.str.5 = private unnamed_addr constant [35 x i8] c"Only 8000Hz sample rate supported\0A\00", align 1
@.str.6 = private unnamed_addr constant [35 x i8] c"Use bitrate 6300 instead of 5300.\0A\00", align 1
@.str.7 = private unnamed_addr constant [13 x i8] c"Bitrate 5300\00", align 1
@.str.8 = private unnamed_addr constant [33 x i8] c"Bitrate not supported, use 6300\0A\00", align 1
@dc_lsp = internal constant [10 x i16] [i16 3131, i16 4721, i16 7690, i16 10806, i16 13872, i16 16495, i16 19752, i16 22260, i16 25484, i16 27718], align 16

; Function Attrs: cold nounwind optsize uwtable
define internal i32 @g723_1_encode_init(ptr noundef %0) #0 {
  %2 = alloca i32, align 4
  %3 = alloca ptr, align 8
  %4 = alloca ptr, align 8
  %5 = alloca ptr, align 8
  %6 = alloca i32, align 4
  store ptr %0, ptr %3, align 8, !tbaa !4
  call void @llvm.lifetime.start.p0(i64 8, ptr %4) #9
  %7 = load ptr, ptr %3, align 8, !tbaa !4
  %8 = getelementptr inbounds nuw %struct.AVCodecContext, ptr %7, i32 0, i32 6
  %9 = load ptr, ptr %8, align 8, !tbaa !9
  store ptr %9, ptr %4, align 8, !tbaa !29
  call void @llvm.lifetime.start.p0(i64 8, ptr %5) #9
  %10 = load ptr, ptr %4, align 8, !tbaa !29
  %11 = getelementptr inbounds nuw %struct.G723_1_Context, ptr %10, i32 0, i32 2
  %12 = getelementptr inbounds [2 x %struct.G723_1_ChannelContext], ptr %11, i64 0, i64 0
  store ptr %12, ptr %5, align 8, !tbaa !31
  %13 = load ptr, ptr %3, align 8, !tbaa !4
  %14 = getelementptr inbounds nuw %struct.AVCodecContext, ptr %13, i32 0, i32 69
  %15 = load i32, ptr %14, align 8, !tbaa !33
  %16 = icmp ne i32 %15, 8000
  br i1 %16, label %17, label %19

17:                                               ; preds = %1
  %18 = load ptr, ptr %3, align 8, !tbaa !4
  call void (ptr, i32, ptr, ...) @av_log(ptr noundef %18, i32 noundef 16, ptr noundef @.str.5)
  store i32 -22, ptr %2, align 4
  store i32 1, ptr %6, align 4
  br label %43

19:                                               ; preds = %1
  %20 = load ptr, ptr %3, align 8, !tbaa !4
  %21 = getelementptr inbounds nuw %struct.AVCodecContext, ptr %20, i32 0, i32 9
  %22 = load i64, ptr %21, align 8, !tbaa !34
  %23 = icmp eq i64 %22, 6300
  br i1 %23, label %24, label %27

24:                                               ; preds = %19
  %25 = load ptr, ptr %5, align 8, !tbaa !31
  %26 = getelementptr inbounds nuw %struct.G723_1_ChannelContext, ptr %25, i32 0, i32 3
  store i32 0, ptr %26, align 4, !tbaa !35
  br label %37

27:                                               ; preds = %19
  %28 = load ptr, ptr %3, align 8, !tbaa !4
  %29 = getelementptr inbounds nuw %struct.AVCodecContext, ptr %28, i32 0, i32 9
  %30 = load i64, ptr %29, align 8, !tbaa !34
  %31 = icmp eq i64 %30, 5300
  br i1 %31, label %32, label %35

32:                                               ; preds = %27
  %33 = load ptr, ptr %3, align 8, !tbaa !4
  call void (ptr, i32, ptr, ...) @av_log(ptr noundef %33, i32 noundef 16, ptr noundef @.str.6)
  %34 = load ptr, ptr %3, align 8, !tbaa !4
  call void (ptr, ptr, ...) @avpriv_report_missing_feature(ptr noundef %34, ptr noundef @.str.7)
  store i32 -1163346256, ptr %2, align 4
  store i32 1, ptr %6, align 4
  br label %43

35:                                               ; preds = %27
  %36 = load ptr, ptr %3, align 8, !tbaa !4
  call void (ptr, i32, ptr, ...) @av_log(ptr noundef %36, i32 noundef 16, ptr noundef @.str.8)
  store i32 -22, ptr %2, align 4
  store i32 1, ptr %6, align 4
  br label %43

37:                                               ; preds = %24
  %38 = load ptr, ptr %3, align 8, !tbaa !4
  %39 = getelementptr inbounds nuw %struct.AVCodecContext, ptr %38, i32 0, i32 72
  store i32 240, ptr %39, align 8, !tbaa !38
  %40 = load ptr, ptr %5, align 8, !tbaa !31
  %41 = getelementptr inbounds nuw %struct.G723_1_ChannelContext, ptr %40, i32 0, i32 7
  %42 = getelementptr inbounds [10 x i16], ptr %41, i64 0, i64 0
  call void @llvm.memcpy.p0.p0.i64(ptr align 4 %42, ptr align 16 @dc_lsp, i64 20, i1 false)
  store i32 0, ptr %2, align 4
  store i32 1, ptr %6, align 4
  br label %43

43:                                               ; preds = %37, %35, %32, %17
  call void @llvm.lifetime.end.p0(i64 8, ptr %5) #9
  call void @llvm.lifetime.end.p0(i64 8, ptr %4) #9
  %44 = load i32, ptr %2, align 4
  ret i32 %44
}