; Function Attrs: cold nounwind optsize uwtable
define internal range(i32 -1163346256, 1) i32 @g723_1_encode_init(ptr noundef %0) #0 {
  %2 = getelementptr inbounds nuw i8, ptr %0, i64 32
  %3 = load ptr, ptr %2, align 8, !tbaa !4
  %4 = getelementptr inbounds nuw i8, ptr %0, i64 344
  %5 = load i32, ptr %4, align 8, !tbaa !27
  %.not = icmp eq i32 %5, 8000
  br i1 %.not, label %7, label %6

6:                                                ; preds = %1
  tail call void (ptr, i32, ptr, ...) @av_log(ptr noundef nonnull %0, i32 noundef 16, ptr noundef nonnull @.str.5) #8
  br label %16

7:                                                ; preds = %1
  %8 = getelementptr inbounds nuw i8, ptr %0, i64 56
  %9 = load i64, ptr %8, align 8, !tbaa !28
  switch i64 %9, label %15 [
    i64 6300, label %10
    i64 5300, label %14
  ]

10:                                               ; preds = %7
  %11 = getelementptr inbounds nuw i8, ptr %3, i64 132
  store i32 0, ptr %11, align 4, !tbaa !29
  %12 = getelementptr inbounds nuw i8, ptr %0, i64 376
  store i32 240, ptr %12, align 8, !tbaa !32
  %13 = getelementptr inbounds nuw i8, ptr %3, i64 152
  tail call void @llvm.memcpy.p0.p0.i64(ptr noundef nonnull align 4 dereferenceable(20) %13, ptr noundef nonnull align 16 dereferenceable(20) @dc_lsp, i64 20, i1 false)
  br label %16

14:                                               ; preds = %7
  tail call void (ptr, i32, ptr, ...) @av_log(ptr noundef nonnull %0, i32 noundef 16, ptr noundef nonnull @.str.6) #8
  tail call void (ptr, ptr, ...) @avpriv_report_missing_feature(ptr noundef nonnull %0, ptr noundef nonnull @.str.7) #8
  br label %16

15:                                               ; preds = %7
  tail call void (ptr, i32, ptr, ...) @av_log(ptr noundef nonnull %0, i32 noundef 16, ptr noundef nonnull @.str.8) #8
  br label %16

16:                                               ; preds = %10, %15, %14, %6
  %.0 = phi i32 [ -22, %6 ], [ 0, %10 ], [ -1163346256, %14 ], [ -22, %15 ]
  ret i32 %.0
}